target datalayout = "e-m:e-p270:32:32-p271:32:32-p272:64:64-i64:64-i128:128-f80:128-n8:16:32:64-S128"
target triple = "x86_64-pc-linux-gnu"

@dt_gpx_geodesic_intermediate_point.lat_rad_1 = internal global double 0.000000e+00, align 8
@dt_gpx_geodesic_intermediate_point.sin_lat_rad_1 = internal global double 0.000000e+00, align 8
@dt_gpx_geodesic_intermediate_point.cos_lat_rad_1 = internal global double 0.000000e+00, align 8
@dt_gpx_geodesic_intermediate_point.lat_rad_2 = internal global double 0.000000e+00, align 8
@dt_gpx_geodesic_intermediate_point.sin_lat_rad_2 = internal global double 0.000000e+00, align 8
@dt_gpx_geodesic_intermediate_point.cos_lat_rad_2 = internal global double 0.000000e+00, align 8
@dt_gpx_geodesic_intermediate_point.lon_rad_1 = internal global double 0.000000e+00, align 8
@dt_gpx_geodesic_intermediate_point.sin_lon_rad_1 = internal global double 0.000000e+00, align 8
@dt_gpx_geodesic_intermediate_point.cos_lon_rad_1 = internal global double 0.000000e+00, align 8
@dt_gpx_geodesic_intermediate_point.lon_rad_2 = internal global double 0.000000e+00, align 8
@dt_gpx_geodesic_intermediate_point.sin_lon_rad_2 = internal global double 0.000000e+00, align 8
@dt_gpx_geodesic_intermediate_point.cos_lon_rad_2 = internal global double 0.000000e+00, align 8
@dt_gpx_geodesic_intermediate_point.sin_delta = internal global double 0.000000e+00, align 8

; Function Attrs: nounwind uwtable
define void @dt_gpx_geodesic_intermediate_point(double noundef %0, double noundef %1, double noundef %2, double noundef %3, double noundef %4, i32 noundef %5, double noundef %6, ptr noundef %7, ptr noundef %8) #0 {
  %10 = alloca double, align 8
  %11 = alloca double, align 8
  %12 = alloca double, align 8
  %13 = alloca double, align 8
  %14 = alloca double, align 8
  %15 = alloca i32, align 4
  %16 = alloca double, align 8
  %17 = alloca ptr, align 8
  %18 = alloca ptr, align 8
  %19 = alloca double, align 8
  %20 = alloca double, align 8
  %21 = alloca double, align 8
  %22 = alloca double, align 8
  %23 = alloca double, align 8
  %24 = alloca double, align 8
  %25 = alloca double, align 8
  store double %0, ptr %10, align 8, !tbaa !89
  store double %1, ptr %11, align 8, !tbaa !89
  store double %2, ptr %12, align 8, !tbaa !89
  store double %3, ptr %13, align 8, !tbaa !89
  store double %4, ptr %14, align 8, !tbaa !89
  store i32 %5, ptr %15, align 4, !tbaa !13
  store double %6, ptr %16, align 8, !tbaa !89
  store ptr %7, ptr %17, align 8, !tbaa !90
  store ptr %8, ptr %18, align 8, !tbaa !90
  %26 = load i32, ptr %15, align 4, !tbaa !13
  %27 = icmp ne i32 %26, 0
  br i1 %27, label %28, label %59

28:                                               ; preds = %9
  %29 = load double, ptr %10, align 8, !tbaa !89
  %30 = fmul reassoc nsz arcp contract afn double %29, 0x400921FB54442D18
  %31 = fdiv reassoc nsz arcp contract afn double %30, 1.800000e+02
  store double %31, ptr @dt_gpx_geodesic_intermediate_point.lat_rad_1, align 8, !tbaa !89
  %32 = load double, ptr @dt_gpx_geodesic_intermediate_point.lat_rad_1, align 8, !tbaa !89
  %33 = call reassoc nsz arcp contract afn double @llvm.sin.f64(double %32)
  store double %33, ptr @dt_gpx_geodesic_intermediate_point.sin_lat_rad_1, align 8, !tbaa !89
  %34 = load double, ptr @dt_gpx_geodesic_intermediate_point.lat_rad_1, align 8, !tbaa !89
  %35 = call reassoc nsz arcp contract afn double @llvm.cos.f64(double %34)
  store double %35, ptr @dt_gpx_geodesic_intermediate_point.cos_lat_rad_1, align 8, !tbaa !89
  %36 = load double, ptr %12, align 8, !tbaa !89
  %37 = fmul reassoc nsz arcp contract afn double %36, 0x400921FB54442D18
  %38 = fdiv reassoc nsz arcp contract afn double %37, 1.800000e+02
  store double %38, ptr @dt_gpx_geodesic_intermediate_point.lat_rad_2, align 8, !tbaa !89
  %39 = load double, ptr @dt_gpx_geodesic_intermediate_point.lat_rad_2, align 8, !tbaa !89
  %40 = call reassoc nsz arcp contract afn double @llvm.sin.f64(double %39)
  store double %40, ptr @dt_gpx_geodesic_intermediate_point.sin_lat_rad_2, align 8, !tbaa !89
  %41 = load double, ptr @dt_gpx_geodesic_intermediate_point.lat_rad_2, align 8, !tbaa !89
  %42 = call reassoc nsz arcp contract afn double @llvm.cos.f64(double %41)
  store double %42, ptr @dt_gpx_geodesic_intermediate_point.cos_lat_rad_2, align 8, !tbaa !89
  %43 = load double, ptr %11, align 8, !tbaa !89
  %44 = fmul reassoc nsz arcp contract afn double %43, 0x400921FB54442D18
  %45 = fdiv reassoc nsz arcp contract afn double %44, 1.800000e+02
  store double %45, ptr @dt_gpx_geodesic_intermediate_point.lon_rad_1, align 8, !tbaa !89
  %46 = load double, ptr @dt_gpx_geodesic_intermediate_point.lon_rad_1, align 8, !tbaa !89
  %47 = call reassoc nsz arcp contract afn double @llvm.sin.f64(double %46)
  store double %47, ptr @dt_gpx_geodesic_intermediate_point.sin_lon_rad_1, align 8, !tbaa !89
  %48 = load double, ptr @dt_gpx_geodesic_intermediate_point.lon_rad_1, align 8, !tbaa !89
  %49 = call reassoc nsz arcp contract afn double @llvm.cos.f64(double %48)
  store double %49, ptr @dt_gpx_geodesic_intermediate_point.cos_lon_rad_1, align 8, !tbaa !89
  %50 = load double, ptr %13, align 8, !tbaa !89
  %51 = fmul reassoc nsz arcp contract afn double %50, 0x400921FB54442D18
  %52 = fdiv reassoc nsz arcp contract afn double %51, 1.800000e+02
  store double %52, ptr @dt_gpx_geodesic_intermediate_point.lon_rad_2, align 8, !tbaa !89
  %53 = load double, ptr @dt_gpx_geodesic_intermediate_point.lon_rad_2, align 8, !tbaa !89
  %54 = call reassoc nsz arcp contract afn double @llvm.sin.f64(double %53)
  store double %54, ptr @dt_gpx_geodesic_intermediate_point.sin_lon_rad_2, align 8, !tbaa !89
  %55 = load double, ptr @dt_gpx_geodesic_intermediate_point.lon_rad_2, align 8, !tbaa !89
  %56 = call reassoc nsz arcp contract afn double @llvm.cos.f64(double %55)
  store double %56, ptr @dt_gpx_geodesic_intermediate_point.cos_lon_rad_2, align 8, !tbaa !89
  %57 = load double, ptr %14, align 8, !tbaa !89
  %58 = call reassoc nsz arcp contract afn double @llvm.sin.f64(double %57)
  store double %58, ptr @dt_gpx_geodesic_intermediate_point.sin_delta, align 8, !tbaa !89
  br label %59

59:                                               ; preds = %28, %9
  call void @llvm.lifetime.start.p0(i64 8, ptr %19) #10
  %60 = load double, ptr %16, align 8, !tbaa !89
  %61 = fsub reassoc nsz arcp contract afn double 1.000000e+00, %60
  %62 = load double, ptr %14, align 8, !tbaa !89
  %63 = fmul reassoc nsz arcp contract afn double %61, %62
  %64 = call reassoc nsz arcp contract afn double @llvm.sin.f64(double %63)
  %65 = load double, ptr @dt_gpx_geodesic_intermediate_point.sin_delta, align 8, !tbaa !89
  %66 = fdiv reassoc nsz arcp contract afn double %64, %65
  store double %66, ptr %19, align 8, !tbaa !89
  call void @llvm.lifetime.start.p0(i64 8, ptr %20) #10
  %67 = load double, ptr %16, align 8, !tbaa !89
  %68 = load double, ptr %14, align 8, !tbaa !89
  %69 = fmul reassoc nsz arcp contract afn double %67, %68
  %70 = call reassoc nsz arcp contract afn double @llvm.sin.f64(double %69)
  %71 = load double, ptr @dt_gpx_geodesic_intermediate_point.sin_delta, align 8, !tbaa !89
  %72 = fdiv reassoc nsz arcp contract afn double %70, %71
  store double %72, ptr %20, align 8, !tbaa !89
  call void @llvm.lifetime.start.p0(i64 8, ptr %21) #10
  %73 = load double, ptr %19, align 8, !tbaa !89
  %74 = load double, ptr @dt_gpx_geodesic_intermediate_point.cos_lat_rad_1, align 8, !tbaa !89
  %75 = fmul reassoc nsz arcp contract afn double %73, %74
  %76 = load double, ptr @dt_gpx_geodesic_intermediate_point.cos_lon_rad_1, align 8, !tbaa !89
  %77 = fmul reassoc nsz arcp contract afn double %75, %76
  %78 = load double, ptr %20, align 8, !tbaa !89
  %79 = load double, ptr @dt_gpx_geodesic_intermediate_point.cos_lat_rad_2, align 8, !tbaa !89
  %80 = fmul reassoc nsz arcp contract afn double %78, %79
  %81 = load double, ptr @dt_gpx_geodesic_intermediate_point.cos_lon_rad_2, align 8, !tbaa !89
  %82 = fmul reassoc nsz arcp contract afn double %80, %81
  %83 = fadd reassoc nsz arcp contract afn double %77, %82
  store double %83, ptr %21, align 8, !tbaa !89
  call void @llvm.lifetime.start.p0(i64 8, ptr %22) #10
  %84 = load double, ptr %19, align 8, !tbaa !89
  %85 = load double, ptr @dt_gpx_geodesic_intermediate_point.cos_lat_rad_1, align 8, !tbaa !89
  %86 = fmul reassoc nsz arcp contract afn double %84, %85
  %87 = load double, ptr @dt_gpx_geodesic_intermediate_point.sin_lon_rad_1, align 8, !tbaa !89
  %88 = fmul reassoc nsz arcp contract afn double %86, %87
  %89 = load double, ptr %20, align 8, !tbaa !89
  %90 = load double, ptr @dt_gpx_geodesic_intermediate_point.cos_lat_rad_2, align 8, !tbaa !89
  %91 = fmul reassoc nsz arcp contract afn double %89, %90
  %92 = load double, ptr @dt_gpx_geodesic_intermediate_point.sin_lon_rad_2, align 8, !tbaa !89
  %93 = fmul reassoc nsz arcp contract afn double %91, %92
  %94 = fadd reassoc nsz arcp contract afn double %88, %93
  store double %94, ptr %22, align 8, !tbaa !89
  call void @llvm.lifetime.start.p0(i64 8, ptr %23) #10
  %95 = load double, ptr %19, align 8, !tbaa !89
  %96 = load double, ptr @dt_gpx_geodesic_intermediate_point.sin_lat_rad_1, align 8, !tbaa !89
  %97 = fmul reassoc nsz arcp contract afn double %95, %96
  %98 = load double, ptr %20, align 8, !tbaa !89
  %99 = load double, ptr @dt_gpx_geodesic_intermediate_point.sin_lat_rad_2, align 8, !tbaa !89
  %100 = fmul reassoc nsz arcp contract afn double %98, %99
  %101 = fadd reassoc nsz arcp contract afn double %97, %100
  store double %101, ptr %23, align 8, !tbaa !89
  call void @llvm.lifetime.start.p0(i64 8, ptr %24) #10
  %102 = load double, ptr %23, align 8, !tbaa !89
  %103 = load double, ptr %21, align 8, !tbaa !89
  %104 = load double, ptr %21, align 8, !tbaa !89
  %105 = fmul reassoc nsz arcp contract afn double %103, %104
  %106 = load double, ptr %22, align 8, !tbaa !89
  %107 = load double, ptr %22, align 8, !tbaa !89
  %108 = fmul reassoc nsz arcp contract afn double %106, %107
  %109 = fadd reassoc nsz arcp contract afn double %105, %108
  %110 = call reassoc nsz arcp contract afn double @llvm.sqrt.f64(double %109)
  %111 = call reassoc nsz arcp contract afn double @llvm.atan2.f64(double %102, double %110)
  store double %111, ptr %24, align 8, !tbaa !89
  call void @llvm.lifetime.start.p0(i64 8, ptr %25) #10
  %112 = load double, ptr %22, align 8, !tbaa !89
  %113 = load double, ptr %21, align 8, !tbaa !89
  %114 = call reassoc nsz arcp contract afn double @llvm.atan2.f64(double %112, double %113)
  store double %114, ptr %25, align 8, !tbaa !89
  %115 = load double, ptr %24, align 8, !tbaa !89
  %116 = fdiv reassoc nsz arcp contract afn double %115, 0x400921FB54442D18
  %117 = fmul reassoc nsz arcp contract afn double %116, 1.800000e+02
  %118 = load ptr, ptr %17, align 8, !tbaa !90
  store double %117, ptr %118, align 8, !tbaa !89
  %119 = load double, ptr %25, align 8, !tbaa !89
  %120 = fdiv reassoc nsz arcp contract afn double %119, 0x400921FB54442D18
  %121 = fmul reassoc nsz arcp contract afn double %120, 1.800000e+02
  %122 = load ptr, ptr %18, align 8, !tbaa !90
  store double %121, ptr %122, align 8, !tbaa !89
  call void @llvm.lifetime.end.p0(i64 8, ptr %25) #10
  call void @llvm.lifetime.end.p0(i64 8, ptr %24) #10
  call void @llvm.lifetime.end.p0(i64 8, ptr %23) #10
  call void @llvm.lifetime.end.p0(i64 8, ptr %22) #10
  call void @llvm.lifetime.end.p0(i64 8, ptr %21) #10
  call void @llvm.lifetime.end.p0(i64 8, ptr %20) #10
  call void @llvm.lifetime.end.p0(i64 8, ptr %19) #10
  ret void
}