; Function Attrs: mustprogress nofree norecurse nosync nounwind willreturn memory(readwrite, argmem: write, inaccessiblemem: none) uwtable
define void @dt_gpx_geodesic_intermediate_point(double noundef %0, double noundef %1, double noundef %2, double noundef %3, double noundef %4, i32 noundef %5, double noundef %6, ptr noundef writeonly captures(none) initializes((0, 8)) %7, ptr noundef writeonly captures(none) initializes((0, 8)) %8) local_unnamed_addr #7 {
  %.not = icmp eq i32 %5, 0
  br i1 %.not, label %._crit_edge, label %10

._crit_edge:                                      ; preds = %9
  %.pre = load double, ptr @dt_gpx_geodesic_intermediate_point.sin_delta, align 8, !tbaa !38
  %.pre26 = load double, ptr @dt_gpx_geodesic_intermediate_point.cos_lat_rad_1, align 8, !tbaa !38
  %.pre27 = load double, ptr @dt_gpx_geodesic_intermediate_point.cos_lon_rad_1, align 8, !tbaa !38
  %.pre28 = load double, ptr @dt_gpx_geodesic_intermediate_point.cos_lat_rad_2, align 8, !tbaa !38
  %.pre29 = load double, ptr @dt_gpx_geodesic_intermediate_point.cos_lon_rad_2, align 8, !tbaa !38
  %.pre30 = load double, ptr @dt_gpx_geodesic_intermediate_point.sin_lon_rad_1, align 8, !tbaa !38
  %.pre31 = load double, ptr @dt_gpx_geodesic_intermediate_point.sin_lon_rad_2, align 8, !tbaa !38
  %.pre32 = load double, ptr @dt_gpx_geodesic_intermediate_point.sin_lat_rad_1, align 8, !tbaa !38
  %.pre33 = load double, ptr @dt_gpx_geodesic_intermediate_point.sin_lat_rad_2, align 8, !tbaa !38
  br label %24

10:                                               ; preds = %9
  %11 = fmul reassoc nsz arcp contract afn double %0, 0x3F91DF46A2529D39
  %12 = tail call reassoc nsz arcp contract afn double @llvm.sin.f64(double %11)
  store double %12, ptr @dt_gpx_geodesic_intermediate_point.sin_lat_rad_1, align 8, !tbaa !38
  %13 = tail call reassoc nsz arcp contract afn double @llvm.cos.f64(double %11)
  store double %13, ptr @dt_gpx_geodesic_intermediate_point.cos_lat_rad_1, align 8, !tbaa !38
  %14 = fmul reassoc nsz arcp contract afn double %2, 0x3F91DF46A2529D39
  %15 = tail call reassoc nsz arcp contract afn double @llvm.sin.f64(double %14)
  store double %15, ptr @dt_gpx_geodesic_intermediate_point.sin_lat_rad_2, align 8, !tbaa !38
  %16 = tail call reassoc nsz arcp contract afn double @llvm.cos.f64(double %14)
  store double %16, ptr @dt_gpx_geodesic_intermediate_point.cos_lat_rad_2, align 8, !tbaa !38
  %17 = fmul reassoc nsz arcp contract afn double %1, 0x3F91DF46A2529D39
  %18 = tail call reassoc nsz arcp contract afn double @llvm.sin.f64(double %17)
  store double %18, ptr @dt_gpx_geodesic_intermediate_point.sin_lon_rad_1, align 8, !tbaa !38
  %19 = tail call reassoc nsz arcp contract afn double @llvm.cos.f64(double %17)
  store double %19, ptr @dt_gpx_geodesic_intermediate_point.cos_lon_rad_1, align 8, !tbaa !38
  %20 = fmul reassoc nsz arcp contract afn double %3, 0x3F91DF46A2529D39
  %21 = tail call reassoc nsz arcp contract afn double @llvm.sin.f64(double %20)
  store double %21, ptr @dt_gpx_geodesic_intermediate_point.sin_lon_rad_2, align 8, !tbaa !38
  %22 = tail call reassoc nsz arcp contract afn double @llvm.cos.f64(double %20)
  store double %22, ptr @dt_gpx_geodesic_intermediate_point.cos_lon_rad_2, align 8, !tbaa !38
  %23 = tail call reassoc nsz arcp contract afn double @llvm.sin.f64(double %4)
  store double %23, ptr @dt_gpx_geodesic_intermediate_point.sin_delta, align 8, !tbaa !38
  br label %24

24:                                               ; preds = %._crit_edge, %10
  %25 = phi double [ %.pre33, %._crit_edge ], [ %15, %10 ]
  %26 = phi double [ %.pre32, %._crit_edge ], [ %12, %10 ]
  %27 = phi double [ %.pre31, %._crit_edge ], [ %21, %10 ]
  %28 = phi double [ %.pre30, %._crit_edge ], [ %18, %10 ]
  %29 = phi double [ %.pre29, %._crit_edge ], [ %22, %10 ]
  %30 = phi double [ %.pre28, %._crit_edge ], [ %16, %10 ]
  %31 = phi double [ %.pre27, %._crit_edge ], [ %19, %10 ]
  %32 = phi double [ %.pre26, %._crit_edge ], [ %13, %10 ]
  %33 = phi double [ %.pre, %._crit_edge ], [ %23, %10 ]
  %34 = fsub reassoc nsz arcp contract afn double 1.000000e+00, %6
  %35 = fmul reassoc nsz arcp contract afn double %34, %4
  %36 = tail call reassoc nsz arcp contract afn double @llvm.sin.f64(double %35)
  %37 = fdiv reassoc nsz arcp contract afn double %36, %33
  %38 = fmul reassoc nsz arcp contract afn double %6, %4
  %39 = tail call reassoc nsz arcp contract afn double @llvm.sin.f64(double %38)
  %40 = fdiv reassoc nsz arcp contract afn double %39, %33
  %41 = fmul reassoc nsz arcp contract afn double %37, %32
  %42 = fmul reassoc nsz arcp contract afn double %41, %31
  %43 = fmul reassoc nsz arcp contract afn double %30, %40
  %44 = fmul reassoc nsz arcp contract afn double %43, %29
  %45 = fadd reassoc nsz arcp contract afn double %44, %42
  %46 = fmul reassoc nsz arcp contract afn double %28, %41
  %47 = fmul reassoc nsz arcp contract afn double %27, %43
  %48 = fadd reassoc nsz arcp contract afn double %47, %46
  %49 = fmul reassoc nsz arcp contract afn double %26, %37
  %50 = fmul reassoc nsz arcp contract afn double %25, %40
  %51 = fadd reassoc nsz arcp contract afn double %50, %49
  %52 = fmul reassoc nsz arcp contract afn double %45, %45
  %53 = fmul reassoc nsz arcp contract afn double %48, %48
  %54 = fadd reassoc nsz arcp contract afn double %53, %52
  %55 = tail call reassoc nsz arcp contract afn double @llvm.sqrt.f64(double %54)
  %56 = tail call reassoc nsz arcp contract afn double @llvm.atan2.f64(double %51, double %55)
  %57 = tail call reassoc nsz arcp contract afn double @llvm.atan2.f64(double %48, double %45)
  %58 = fmul reassoc nsz arcp contract afn double %56, 0x404CA5DC1A63C1F8
  store double %58, ptr %7, align 8, !tbaa !38
  %59 = fmul reassoc nsz arcp contract afn double %57, 0x404CA5DC1A63C1F8
  store double %59, ptr %8, align 8, !tbaa !38
  ret void
}